; Function Attrs: nounwind uwtable
define ptr @Ivy_Multi_rec(ptr noundef %0, ptr noundef %1, i32 noundef %2, i32 noundef %3) local_unnamed_addr #0 {
  %5 = icmp eq i32 %2, 1
  br i1 %5, label %6, label %8

6:                                                ; preds = %4
  %7 = load ptr, ptr %1, align 8, !tbaa !19
  br label %Ivy_Oper.exit

8:                                                ; preds = %4
  %9 = sdiv i32 %2, 2
  %10 = tail call ptr @Ivy_Multi_rec(ptr noundef %0, ptr noundef %1, i32 noundef %9, i32 noundef %3)
  %11 = sext i32 %9 to i64
  %12 = getelementptr inbounds ptr, ptr %1, i64 %11
  %13 = sub nsw i32 %2, %9
  %14 = tail call ptr @Ivy_Multi_rec(ptr noundef %0, ptr noundef %12, i32 noundef %13, i32 noundef %3)
  switch i32 %3, label %Ivy_Oper.exit [
    i32 5, label %15
    i32 6, label %52
  ]

15:                                               ; preds = %8
  %16 = icmp eq ptr %10, %14
  br i1 %16, label %Ivy_Oper.exit, label %17

17:                                               ; preds = %15
  %18 = ptrtoint ptr %14 to i64
  %19 = xor i64 %18, 1
  %20 = inttoptr i64 %19 to ptr
  %21 = icmp eq ptr %10, %20
  br i1 %21, label %22, label %28

22:                                               ; preds = %17
  %23 = getelementptr inbounds nuw i8, ptr %0, i64 32
  %24 = load ptr, ptr %23, align 8, !tbaa !3
  %25 = ptrtoint ptr %24 to i64
  %26 = xor i64 %25, 1
  %27 = inttoptr i64 %26 to ptr
  br label %Ivy_Oper.exit

28:                                               ; preds = %17
  %29 = ptrtoint ptr %10 to i64
  %30 = and i64 %29, -2
  %31 = inttoptr i64 %30 to ptr
  %32 = getelementptr inbounds nuw i8, ptr %0, i64 32
  %33 = load ptr, ptr %32, align 8, !tbaa !3
  %34 = icmp eq ptr %33, %31
  br i1 %34, label %35, label %40

35:                                               ; preds = %28
  %36 = icmp eq ptr %10, %31
  br i1 %36, label %Ivy_Oper.exit, label %37

37:                                               ; preds = %35
  %38 = or i64 %29, 1
  %39 = inttoptr i64 %38 to ptr
  br label %Ivy_Oper.exit

40:                                               ; preds = %28
  %41 = and i64 %18, -2
  %42 = inttoptr i64 %41 to ptr
  %43 = icmp eq ptr %33, %42
  br i1 %43, label %44, label %50

44:                                               ; preds = %40
  %45 = icmp eq ptr %14, %33
  br i1 %45, label %Ivy_Oper.exit, label %46

46:                                               ; preds = %44
  %47 = ptrtoint ptr %33 to i64
  %48 = xor i64 %47, 1
  %49 = inttoptr i64 %48 to ptr
  br label %Ivy_Oper.exit

50:                                               ; preds = %40
  %51 = tail call ptr @Ivy_CanonAnd(ptr noundef nonnull %0, ptr noundef %10, ptr noundef %14) #2
  br label %Ivy_Oper.exit

52:                                               ; preds = %8
  %53 = tail call ptr @Ivy_Exor(ptr noundef %0, ptr noundef %10, ptr noundef %14)
  br label %Ivy_Oper.exit

Ivy_Oper.exit:                                    ; preds = %52, %50, %46, %44, %37, %35, %22, %15, %8, %6
  %.0 = phi ptr [ %7, %6 ], [ %53, %52 ], [ null, %8 ], [ %27, %22 ], [ %51, %50 ], [ %10, %15 ], [ %39, %37 ], [ %14, %35 ], [ %49, %46 ], [ %10, %44 ]
  ret ptr %.0
}